; Function Attrs: nounwind sspstrong uwtable
define dso_local noundef ptr @rb_parser_st_init_table_with_size(ptr noundef %0, i64 noundef %1) local_unnamed_addr #0 {
  %3 = tail call noalias dereferenceable_or_null(56) ptr @malloc(i64 noundef 56) #24
  %4 = icmp eq ptr %3, null
  br i1 %4, label %9, label %5

5:                                                ; preds = %2
  %6 = tail call ptr @rb_parser_st_init_existing_table_with_size(ptr noundef nonnull %3, ptr noundef %0, i64 noundef %1)
  %7 = icmp eq ptr %6, null
  br i1 %7, label %8, label %9

8:                                                ; preds = %5
  tail call void @free(ptr noundef nonnull %3) #25
  br label %9

9:                                                ; preds = %5, %2, %8
  %.0 = phi ptr [ null, %8 ], [ null, %2 ], [ %3, %5 ]
  ret ptr %.0
}